; Function Attrs: nounwind uwtable
define void @Bac_NtkUpdateFanout(ptr noundef captures(none) %0, i32 noundef %1, i32 noundef %2) local_unnamed_addr #6 {
  %4 = getelementptr i8, ptr %0, i64 152
  %.val = load ptr, ptr %4, align 8, !tbaa !23
  %5 = sext i32 %1 to i64
  %6 = getelementptr inbounds i32, ptr %.val, i64 %5
  %.062 = load i32, ptr %6, align 4, !tbaa !24
  %.not63 = icmp eq i32 %.062, 0
  br i1 %.not63, label %._crit_edge, label %.lr.ph

.lr.ph:                                           ; preds = %3
  %7 = getelementptr inbounds nuw i8, ptr %0, i64 96
  %8 = getelementptr inbounds nuw i8, ptr %0, i64 100
  %9 = getelementptr i8, ptr %0, i64 104
  br label %10

10:                                               ; preds = %.lr.ph, %Bac_ObjSetFanin.exit
  %.064 = phi i32 [ %.062, %.lr.ph ], [ %.0, %Bac_ObjSetFanin.exit ]
  %11 = add nsw i32 %.064, 1
  %12 = load i32, ptr %8, align 4, !tbaa !22
  %.not.i.not.i.i = icmp slt i32 %.064, %12
  br i1 %.not.i.not.i.i, label %Bac_ObjCleanFanin.exit, label %13

13:                                               ; preds = %10
  %14 = load i32, ptr %7, align 8, !tbaa !28
  %15 = shl nsw i32 %14, 1
  %.not.i.i = icmp slt i32 %.064, %15
  %.not.i.i.not.i.i = icmp sgt i32 %14, %.064
  br i1 %.not.i.i, label %25, label %16

16:                                               ; preds = %13
  br i1 %.not.i.i.not.i.i, label %Vec_IntGrow.exit.i.i.i, label %17

17:                                               ; preds = %16
  %18 = load ptr, ptr %9, align 8, !tbaa !23
  %.not9.i.i.i.i = icmp eq ptr %18, null
  %19 = sext i32 %11 to i64
  %20 = shl nsw i64 %19, 2
  br i1 %.not9.i.i.i.i, label %23, label %21

21:                                               ; preds = %17
  %22 = tail call ptr @realloc(ptr noundef nonnull %18, i64 noundef %20) #23
  br label %Vec_IntGrow.exit.sink.split.i.i.i

23:                                               ; preds = %17
  %24 = tail call noalias ptr @malloc(i64 noundef %20) #24
  br label %Vec_IntGrow.exit.sink.split.i.i.i

25:                                               ; preds = %13
  br i1 %.not.i.i.not.i.i, label %Vec_IntGrow.exit.i.i.i, label %26

26:                                               ; preds = %25
  %27 = load ptr, ptr %9, align 8, !tbaa !23
  %.not9.i21.i.i.i = icmp eq ptr %27, null
  %28 = sext i32 %15 to i64
  %29 = shl nsw i64 %28, 2
  br i1 %.not9.i21.i.i.i, label %32, label %30

30:                                               ; preds = %26
  %31 = tail call ptr @realloc(ptr noundef nonnull %27, i64 noundef %29) #23
  br label %Vec_IntGrow.exit.sink.split.i.i.i

32:                                               ; preds = %26
  %33 = tail call noalias ptr @malloc(i64 noundef %29) #24
  br label %Vec_IntGrow.exit.sink.split.i.i.i

Vec_IntGrow.exit.sink.split.i.i.i:                ; preds = %30, %32, %21, %23
  %storemerge70 = phi ptr [ %22, %21 ], [ %24, %23 ], [ %31, %30 ], [ %33, %32 ]
  %.sink.i.i.i = phi i32 [ %11, %21 ], [ %11, %23 ], [ %15, %30 ], [ %15, %32 ]
  store ptr %storemerge70, ptr %9, align 8, !tbaa !23
  store i32 %.sink.i.i.i, ptr %7, align 8, !tbaa !28
  %.pre.i.i = load i32, ptr %8, align 4, !tbaa !22
  br label %Vec_IntGrow.exit.i.i.i

Vec_IntGrow.exit.i.i.i:                           ; preds = %Vec_IntGrow.exit.sink.split.i.i.i, %25, %16
  %34 = phi i32 [ %.pre.i.i, %Vec_IntGrow.exit.sink.split.i.i.i ], [ %12, %25 ], [ %12, %16 ]
  %.not4.i.i = icmp sgt i32 %34, %.064
  br i1 %.not4.i.i, label %._crit_edge.i.i.i, label %.lr.ph.i.i.i

.lr.ph.i.i.i:                                     ; preds = %Vec_IntGrow.exit.i.i.i
  %35 = load ptr, ptr %9, align 8, !tbaa !23
  %36 = sext i32 %34 to i64
  %37 = shl nsw i64 %36, 2
  %scevgep.i.i.i = getelementptr i8, ptr %35, i64 %37
  %38 = sub i32 %.064, %34
  %39 = zext i32 %38 to i64
  %40 = shl nuw nsw i64 %39, 2
  %41 = add nuw nsw i64 %40, 4
  tail call void @llvm.memset.p0.i64(ptr noundef nonnull align 4 dereferenceable(1) %scevgep.i.i.i, i8 0, i64 %41, i1 false), !tbaa !24
  br label %._crit_edge.i.i.i

._crit_edge.i.i.i:                                ; preds = %.lr.ph.i.i.i, %Vec_IntGrow.exit.i.i.i
  store i32 %11, ptr %8, align 4, !tbaa !22
  br label %Bac_ObjCleanFanin.exit

Bac_ObjCleanFanin.exit:                           ; preds = %10, %._crit_edge.i.i.i
  %.val.i.i = load ptr, ptr %9, align 8, !tbaa !23
  %42 = sext i32 %.064 to i64
  %43 = getelementptr inbounds i32, ptr %.val.i.i, i64 %42
  store i32 -1, ptr %43, align 4, !tbaa !24
  %44 = load i32, ptr %8, align 4, !tbaa !22
  %.not.i.not.i.i17 = icmp slt i32 %.064, %44
  br i1 %.not.i.not.i.i17, label %Bac_ObjSetFanin.exit, label %45

45:                                               ; preds = %Bac_ObjCleanFanin.exit
  %46 = load i32, ptr %7, align 8, !tbaa !28
  %.not.i.i.not.i.i19 = icmp sgt i32 %46, %.064
  br i1 %.not.i.i.not.i.i19, label %Vec_IntGrow.exit.i.i.i24, label %Vec_IntGrow.exit.sink.split.i.i.i21

Vec_IntGrow.exit.sink.split.i.i.i21:              ; preds = %45
  %47 = shl nsw i32 %46, 1
  %.not.i.i18 = icmp slt i32 %.064, %47
  %. = select i1 %.not.i.i18, i32 %47, i32 %11
  %48 = sext i32 %. to i64
  %49 = shl nsw i64 %48, 2
  %50 = tail call ptr @realloc(ptr noundef nonnull %.val.i.i, i64 noundef %49) #23
  store ptr %50, ptr %9, align 8, !tbaa !23
  store i32 %., ptr %7, align 8, !tbaa !28
  %.pre.i.i23 = load i32, ptr %8, align 4, !tbaa !22
  br label %Vec_IntGrow.exit.i.i.i24

Vec_IntGrow.exit.i.i.i24:                         ; preds = %45, %Vec_IntGrow.exit.sink.split.i.i.i21
  %51 = phi ptr [ %50, %Vec_IntGrow.exit.sink.split.i.i.i21 ], [ %.val.i.i, %45 ]
  %52 = phi i32 [ %.pre.i.i23, %Vec_IntGrow.exit.sink.split.i.i.i21 ], [ %44, %45 ]
  %.not4.i.i25 = icmp sgt i32 %52, %.064
  br i1 %.not4.i.i25, label %._crit_edge.i.i.i28, label %.lr.ph.i.i.i26

.lr.ph.i.i.i26:                                   ; preds = %Vec_IntGrow.exit.i.i.i24
  %53 = sext i32 %52 to i64
  %54 = shl nsw i64 %53, 2
  %scevgep.i.i.i27 = getelementptr i8, ptr %51, i64 %54
  %55 = sub i32 %.064, %52
  %56 = zext i32 %55 to i64
  %57 = shl nuw nsw i64 %56, 2
  %58 = add nuw nsw i64 %57, 4
  tail call void @llvm.memset.p0.i64(ptr noundef nonnull align 4 dereferenceable(1) %scevgep.i.i.i27, i8 0, i64 %58, i1 false), !tbaa !24
  br label %._crit_edge.i.i.i28

._crit_edge.i.i.i28:                              ; preds = %.lr.ph.i.i.i26, %Vec_IntGrow.exit.i.i.i24
  store i32 %11, ptr %8, align 4, !tbaa !22
  br label %Bac_ObjSetFanin.exit

Bac_ObjSetFanin.exit:                             ; preds = %Bac_ObjCleanFanin.exit, %._crit_edge.i.i.i28
  %.val.i.i29 = phi ptr [ %.val.i.i, %Bac_ObjCleanFanin.exit ], [ %51, %._crit_edge.i.i.i28 ]
  %59 = getelementptr inbounds i32, ptr %.val.i.i29, i64 %42
  store i32 %2, ptr %59, align 4, !tbaa !24
  %.val16 = load ptr, ptr %4, align 8, !tbaa !23
  %60 = getelementptr inbounds i32, ptr %.val16, i64 %42
  %.0 = load i32, ptr %60, align 4, !tbaa !24
  %.not = icmp eq i32 %.0, 0
  br i1 %.not, label %._crit_edge.loopexit, label %10, !llvm.loop !31

._crit_edge.loopexit:                             ; preds = %Bac_ObjSetFanin.exit
  %.phi.trans.insert = getelementptr inbounds i32, ptr %.val16, i64 %5
  %.pre = load i32, ptr %.phi.trans.insert, align 4, !tbaa !24
  br label %._crit_edge

._crit_edge:                                      ; preds = %._crit_edge.loopexit, %3
  %61 = phi i32 [ %.pre, %._crit_edge.loopexit ], [ 0, %3 ]
  %.val15 = phi ptr [ %.val16, %._crit_edge.loopexit ], [ %.val, %3 ]
  %62 = getelementptr inbounds nuw i8, ptr %0, i64 144
  %63 = add nsw i32 %2, 1
  %64 = getelementptr inbounds nuw i8, ptr %0, i64 148
  %65 = load i32, ptr %64, align 4, !tbaa !22
  %.not.i.not.i.i31 = icmp slt i32 %2, %65
  br i1 %.not.i.not.i.i31, label %Bac_ObjSetFanout.exit, label %66

66:                                               ; preds = %._crit_edge
  %67 = load i32, ptr %62, align 8, !tbaa !28
  %.not.i.i.not.i.i33 = icmp sgt i32 %67, %2
  br i1 %.not.i.i.not.i.i33, label %Vec_IntGrow.exit.i.i.i38, label %Vec_IntGrow.exit.sink.split.i.i.i35

Vec_IntGrow.exit.sink.split.i.i.i35:              ; preds = %66
  %68 = shl nsw i32 %67, 1
  %.not.i.i32 = icmp slt i32 %2, %68
  %.78 = select i1 %.not.i.i32, i32 %68, i32 %63
  %69 = sext i32 %.78 to i64
  %70 = shl nsw i64 %69, 2
  %71 = tail call ptr @realloc(ptr noundef nonnull %.val15, i64 noundef %70) #23
  store ptr %71, ptr %4, align 8, !tbaa !23
  store i32 %.78, ptr %62, align 8, !tbaa !28
  %.pre.i.i37 = load i32, ptr %64, align 4, !tbaa !22
  br label %Vec_IntGrow.exit.i.i.i38

Vec_IntGrow.exit.i.i.i38:                         ; preds = %66, %Vec_IntGrow.exit.sink.split.i.i.i35
  %72 = phi ptr [ %71, %Vec_IntGrow.exit.sink.split.i.i.i35 ], [ %.val15, %66 ]
  %73 = phi i32 [ %.pre.i.i37, %Vec_IntGrow.exit.sink.split.i.i.i35 ], [ %65, %66 ]
  %.not4.i.i39 = icmp sgt i32 %73, %2
  br i1 %.not4.i.i39, label %._crit_edge.i.i.i42, label %.lr.ph.i.i.i40

.lr.ph.i.i.i40:                                   ; preds = %Vec_IntGrow.exit.i.i.i38
  %74 = sext i32 %73 to i64
  %75 = shl nsw i64 %74, 2
  %scevgep.i.i.i41 = getelementptr i8, ptr %72, i64 %75
  %76 = sub i32 %2, %73
  %77 = zext i32 %76 to i64
  %78 = shl nuw nsw i64 %77, 2
  %79 = add nuw nsw i64 %78, 4
  tail call void @llvm.memset.p0.i64(ptr noundef nonnull align 4 dereferenceable(1) %scevgep.i.i.i41, i8 0, i64 %79, i1 false), !tbaa !24
  br label %._crit_edge.i.i.i42

._crit_edge.i.i.i42:                              ; preds = %.lr.ph.i.i.i40, %Vec_IntGrow.exit.i.i.i38
  store i32 %63, ptr %64, align 4, !tbaa !22
  br label %Bac_ObjSetFanout.exit

Bac_ObjSetFanout.exit:                            ; preds = %._crit_edge, %._crit_edge.i.i.i42
  %.val.i.i43 = phi ptr [ %.val15, %._crit_edge ], [ %72, %._crit_edge.i.i.i42 ]
  %80 = sext i32 %2 to i64
  %81 = getelementptr inbounds i32, ptr %.val.i.i43, i64 %80
  store i32 %61, ptr %81, align 4, !tbaa !24
  %82 = add nsw i32 %1, 1
  %83 = load i32, ptr %64, align 4, !tbaa !22
  %.not.i.not.i.i45 = icmp slt i32 %1, %83
  br i1 %.not.i.not.i.i45, label %Bac_ObjSetFanout.exit59, label %84

84:                                               ; preds = %Bac_ObjSetFanout.exit
  %85 = load i32, ptr %62, align 8, !tbaa !28
  %.not.i.i.not.i.i47 = icmp sgt i32 %85, %1
  br i1 %.not.i.i.not.i.i47, label %Vec_IntGrow.exit.i.i.i52, label %Vec_IntGrow.exit.sink.split.i.i.i49

Vec_IntGrow.exit.sink.split.i.i.i49:              ; preds = %84
  %86 = shl nsw i32 %85, 1
  %.not.i.i46 = icmp slt i32 %1, %86
  %.79 = select i1 %.not.i.i46, i32 %86, i32 %82
  %87 = sext i32 %.79 to i64
  %88 = shl nsw i64 %87, 2
  %89 = tail call ptr @realloc(ptr noundef nonnull %.val.i.i43, i64 noundef %88) #23
  store ptr %89, ptr %4, align 8, !tbaa !23
  store i32 %.79, ptr %62, align 8, !tbaa !28
  %.pre.i.i51 = load i32, ptr %64, align 4, !tbaa !22
  br label %Vec_IntGrow.exit.i.i.i52

Vec_IntGrow.exit.i.i.i52:                         ; preds = %84, %Vec_IntGrow.exit.sink.split.i.i.i49
  %90 = phi ptr [ %89, %Vec_IntGrow.exit.sink.split.i.i.i49 ], [ %.val.i.i43, %84 ]
  %91 = phi i32 [ %.pre.i.i51, %Vec_IntGrow.exit.sink.split.i.i.i49 ], [ %83, %84 ]
  %.not4.i.i53 = icmp sgt i32 %91, %1
  br i1 %.not4.i.i53, label %._crit_edge.i.i.i56, label %.lr.ph.i.i.i54

.lr.ph.i.i.i54:                                   ; preds = %Vec_IntGrow.exit.i.i.i52
  %92 = sext i32 %91 to i64
  %93 = shl nsw i64 %92, 2
  %scevgep.i.i.i55 = getelementptr i8, ptr %90, i64 %93
  %94 = sub i32 %1, %91
  %95 = zext i32 %94 to i64
  %96 = shl nuw nsw i64 %95, 2
  %97 = add nuw nsw i64 %96, 4
  tail call void @llvm.memset.p0.i64(ptr noundef nonnull align 4 dereferenceable(1) %scevgep.i.i.i55, i8 0, i64 %97, i1 false), !tbaa !24
  br label %._crit_edge.i.i.i56

._crit_edge.i.i.i56:                              ; preds = %.lr.ph.i.i.i54, %Vec_IntGrow.exit.i.i.i52
  store i32 %82, ptr %64, align 4, !tbaa !22
  br label %Bac_ObjSetFanout.exit59

Bac_ObjSetFanout.exit59:                          ; preds = %Bac_ObjSetFanout.exit, %._crit_edge.i.i.i56
  %.val.i.i57 = phi ptr [ %.val.i.i43, %Bac_ObjSetFanout.exit ], [ %90, %._crit_edge.i.i.i56 ]
  %98 = getelementptr inbounds i32, ptr %.val.i.i57, i64 %5
  store i32 0, ptr %98, align 4, !tbaa !24
  ret void
}